; Function Attrs: mustprogress uwtable
define internal void @"_ZNSt17_Function_handlerIFvRN2tf7SubflowEEZ5spawniS2_E3$_1E9_M_invokeERKSt9_Any_dataS2_"(ptr noundef nonnull readonly align 8 captures(none) dereferenceable(16) %0, ptr noundef nonnull align 8 captures(none) dereferenceable(40) %1) #3 align 2 {
  %3 = getelementptr inbounds nuw i8, ptr %0, i64 8
  %4 = load i32, ptr %3, align 8, !tbaa !811
  %5 = add nsw i32 %4, -2
  %6 = tail call noundef i32 @_Z5spawniRN2tf7SubflowE(i32 noundef %5, ptr noundef nonnull align 8 dereferenceable(40) %1)
  %7 = load ptr, ptr %0, align 8, !tbaa !813
  store i32 %6, ptr %7, align 4, !tbaa !62
  ret void
}